target datalayout = "e-m:e-p270:32:32-p271:32:32-p272:64:64-i64:64-i128:128-f80:128-n8:16:32:64-S128"
target triple = "x86_64-pc-linux-gnu"

%struct._object = type { %union.anon, ptr }
%union.anon = type { i64 }

@_Py_NoneStruct = external global %struct._object, align 8
@.str.6 = private unnamed_addr constant [9 x i8] c"__exit__\00", align 1

; Function Attrs: nounwind uwtable
define internal ptr @_multiprocessing_SemLock___exit___impl(ptr noundef %0, ptr noundef %1, ptr noundef %2, ptr noundef %3) #0 {
  %5 = alloca ptr, align 8
  %6 = alloca ptr, align 8
  %7 = alloca ptr, align 8
  %8 = alloca ptr, align 8
  store ptr %0, ptr %5, align 8, !tbaa !10
  store ptr %1, ptr %6, align 8, !tbaa !8
  store ptr %2, ptr %7, align 8, !tbaa !8
  store ptr %3, ptr %8, align 8, !tbaa !8
  %9 = load ptr, ptr %5, align 8, !tbaa !10
  %10 = call ptr @_multiprocessing_SemLock_release_impl(ptr noundef %9)
  ret ptr %10
}

; Function Attrs: nounwind uwtable
define internal ptr @_multiprocessing_SemLock___exit__(ptr noundef %0, ptr noundef %1, i64 noundef %2) #0 {
  %4 = alloca ptr, align 8
  %5 = alloca ptr, align 8
  %6 = alloca i64, align 8
  %7 = alloca ptr, align 8
  %8 = alloca ptr, align 8
  %9 = alloca ptr, align 8
  %10 = alloca ptr, align 8
  store ptr %0, ptr %4, align 8, !tbaa !8
  store ptr %1, ptr %5, align 8, !tbaa !27
  store i64 %2, ptr %6, align 8, !tbaa !26
  call void @llvm.lifetime.start.p0(i64 8, ptr %7) #10
  store ptr null, ptr %7, align 8, !tbaa !8
  call void @llvm.lifetime.start.p0(i64 8, ptr %8) #10
  store ptr @_Py_NoneStruct, ptr %8, align 8, !tbaa !8
  call void @llvm.lifetime.start.p0(i64 8, ptr %9) #10
  store ptr @_Py_NoneStruct, ptr %9, align 8, !tbaa !8
  call void @llvm.lifetime.start.p0(i64 8, ptr %10) #10
  store ptr @_Py_NoneStruct, ptr %10, align 8, !tbaa !8
  %11 = load i64, ptr %6, align 8, !tbaa !26
  %12 = icmp sle i64 0, %11
  br i1 %12, label %13, label %16

13:                                               ; preds = %3
  %14 = load i64, ptr %6, align 8, !tbaa !26
  %15 = icmp sle i64 %14, 3
  br i1 %15, label %21, label %16

16:                                               ; preds = %13, %3
  %17 = load i64, ptr %6, align 8, !tbaa !26
  %18 = call i32 @_PyArg_CheckPositional(ptr noundef @.str.6, i64 noundef %17, i64 noundef 0, i64 noundef 3)
  %19 = icmp ne i32 %18, 0
  br i1 %19, label %21, label %20

20:                                               ; preds = %16
  br label %49

21:                                               ; preds = %16, %13
  %22 = load i64, ptr %6, align 8, !tbaa !26
  %23 = icmp slt i64 %22, 1
  br i1 %23, label %24, label %25

24:                                               ; preds = %21
  br label %43

25:                                               ; preds = %21
  %26 = load ptr, ptr %5, align 8, !tbaa !27
  %27 = getelementptr ptr, ptr %26, i64 0
  %28 = load ptr, ptr %27, align 8, !tbaa !8
  store ptr %28, ptr %8, align 8, !tbaa !8
  %29 = load i64, ptr %6, align 8, !tbaa !26
  %30 = icmp slt i64 %29, 2
  br i1 %30, label %31, label %32

31:                                               ; preds = %25
  br label %43

32:                                               ; preds = %25
  %33 = load ptr, ptr %5, align 8, !tbaa !27
  %34 = getelementptr ptr, ptr %33, i64 1
  %35 = load ptr, ptr %34, align 8, !tbaa !8
  store ptr %35, ptr %9, align 8, !tbaa !8
  %36 = load i64, ptr %6, align 8, !tbaa !26
  %37 = icmp slt i64 %36, 3
  br i1 %37, label %38, label %39

38:                                               ; preds = %32
  br label %43

39:                                               ; preds = %32
  %40 = load ptr, ptr %5, align 8, !tbaa !27
  %41 = getelementptr ptr, ptr %40, i64 2
  %42 = load ptr, ptr %41, align 8, !tbaa !8
  store ptr %42, ptr %10, align 8, !tbaa !8
  br label %43

43:                                               ; preds = %39, %38, %31, %24
  %44 = load ptr, ptr %4, align 8, !tbaa !8
  %45 = load ptr, ptr %8, align 8, !tbaa !8
  %46 = load ptr, ptr %9, align 8, !tbaa !8
  %47 = load ptr, ptr %10, align 8, !tbaa !8
  %48 = call ptr @_multiprocessing_SemLock___exit___impl(ptr noundef %44, ptr noundef %45, ptr noundef %46, ptr noundef %47)
  store ptr %48, ptr %7, align 8, !tbaa !8
  br label %49

49:                                               ; preds = %43, %20
  %50 = load ptr, ptr %7, align 8, !tbaa !8
  call void @llvm.lifetime.end.p0(i64 8, ptr %10) #10
  call void @llvm.lifetime.end.p0(i64 8, ptr %9) #10
  call void @llvm.lifetime.end.p0(i64 8, ptr %8) #10
  call void @llvm.lifetime.end.p0(i64 8, ptr %7) #10
  ret ptr %50
}