; Function Attrs: nounwind uwtable
define internal ptr @_multiprocessing_SemLock___exit__(ptr noundef captures(none) %0, ptr readnone captures(none) %1, i64 noundef %2) #0 {
  %or.cond = icmp ult i64 %2, 4
  br i1 %or.cond, label %6, label %4

4:                                                ; preds = %3
  %5 = tail call i32 @_PyArg_CheckPositional(ptr noundef nonnull @.str.6, i64 noundef %2, i64 noundef 0, i64 noundef 3) #11
  %.not = icmp eq i32 %5, 0
  br i1 %.not, label %8, label %6

6:                                                ; preds = %3, %4
  %7 = tail call fastcc ptr @_multiprocessing_SemLock_release_impl(ptr noundef %0)
  br label %8

8:                                                ; preds = %4, %6
  %.016 = phi ptr [ %7, %6 ], [ null, %4 ]
  ret ptr %.016
}